target datalayout = "e-m:e-p270:32:32-p271:32:32-p272:64:64-i64:64-i128:128-f80:128-n8:16:32:64-S128"
target triple = "x86_64-pc-linux-gnu"

@hf_homeplug_av_reserved = internal global i32 0, align 4
@hf_homeplug_av_cblock = internal global i32 0, align 4
@hf_homeplug_av_cblock_sdram_size = internal global i32 0, align 4
@hf_homeplug_av_cblock_sdram_conf = internal global i32 0, align 4
@hf_homeplug_av_cblock_sdram_tim0 = internal global i32 0, align 4
@hf_homeplug_av_cblock_sdram_tim1 = internal global i32 0, align 4
@hf_homeplug_av_cblock_sdram_cntrl = internal global i32 0, align 4
@hf_homeplug_av_cblock_sdram_refresh = internal global i32 0, align 4
@hf_homeplug_av_cblock_mac_clock = internal global i32 0, align 4
@ett_homeplug_av_cblock = internal global i32 0, align 4

; Function Attrs: nounwind uwtable
define internal void @dissect_homeplug_av_cblock(ptr noundef %0) #0 {
  %2 = alloca ptr, align 8
  %3 = alloca ptr, align 8
  store ptr %0, ptr %2, align 8
  %4 = load ptr, ptr %2, align 8
  %5 = call ptr @ptvcursor_tree(ptr noundef %4)
  %6 = icmp ne ptr %5, null
  br i1 %6, label %8, label %7

7:                                                ; preds = %1
  br label %41

8:                                                ; preds = %1
  %9 = load ptr, ptr %2, align 8
  %10 = load i32, ptr @hf_homeplug_av_cblock, align 4
  %11 = call ptr @ptvcursor_add_no_advance(ptr noundef %9, i32 noundef %10, i32 noundef -1, i32 noundef 0)
  store ptr %11, ptr %3, align 8
  %12 = load ptr, ptr %2, align 8
  %13 = load ptr, ptr %3, align 8
  %14 = load i32, ptr @ett_homeplug_av_cblock, align 4
  %15 = call ptr @ptvcursor_push_subtree(ptr noundef %12, ptr noundef %13, i32 noundef %14)
  %16 = load ptr, ptr %2, align 8
  %17 = load i32, ptr @hf_homeplug_av_cblock_sdram_size, align 4
  %18 = call ptr @ptvcursor_add(ptr noundef %16, i32 noundef %17, i32 noundef 4, i32 noundef -2147483648)
  %19 = load ptr, ptr %2, align 8
  %20 = load i32, ptr @hf_homeplug_av_cblock_sdram_conf, align 4
  %21 = call ptr @ptvcursor_add(ptr noundef %19, i32 noundef %20, i32 noundef 4, i32 noundef -2147483648)
  %22 = load ptr, ptr %2, align 8
  %23 = load i32, ptr @hf_homeplug_av_cblock_sdram_tim0, align 4
  %24 = call ptr @ptvcursor_add(ptr noundef %22, i32 noundef %23, i32 noundef 4, i32 noundef -2147483648)
  %25 = load ptr, ptr %2, align 8
  %26 = load i32, ptr @hf_homeplug_av_cblock_sdram_tim1, align 4
  %27 = call ptr @ptvcursor_add(ptr noundef %25, i32 noundef %26, i32 noundef 4, i32 noundef -2147483648)
  %28 = load ptr, ptr %2, align 8
  %29 = load i32, ptr @hf_homeplug_av_cblock_sdram_cntrl, align 4
  %30 = call ptr @ptvcursor_add(ptr noundef %28, i32 noundef %29, i32 noundef 4, i32 noundef -2147483648)
  %31 = load ptr, ptr %2, align 8
  %32 = load i32, ptr @hf_homeplug_av_cblock_sdram_refresh, align 4
  %33 = call ptr @ptvcursor_add(ptr noundef %31, i32 noundef %32, i32 noundef 4, i32 noundef -2147483648)
  %34 = load ptr, ptr %2, align 8
  %35 = load i32, ptr @hf_homeplug_av_cblock_mac_clock, align 4
  %36 = call ptr @ptvcursor_add(ptr noundef %34, i32 noundef %35, i32 noundef 4, i32 noundef -2147483648)
  %37 = load ptr, ptr %2, align 8
  %38 = load i32, ptr @hf_homeplug_av_reserved, align 4
  %39 = call ptr @ptvcursor_add(ptr noundef %37, i32 noundef %38, i32 noundef 4, i32 noundef 0)
  %40 = load ptr, ptr %2, align 8
  call void @ptvcursor_pop_subtree(ptr noundef %40)
  br label %41

41:                                               ; preds = %8, %7
  ret void
}