; Function Attrs: nounwind uwtable
define internal fastcc void @dissect_homeplug_av_cblock(ptr noundef %0) unnamed_addr #0 {
  %2 = tail call ptr @ptvcursor_tree(ptr noundef %0) #5
  %.not = icmp eq ptr %2, null
  br i1 %.not, label %24, label %3

3:                                                ; preds = %1
  %4 = load i32, ptr @hf_homeplug_av_cblock, align 4
  %5 = tail call ptr @ptvcursor_add_no_advance(ptr noundef %0, i32 noundef %4, i32 noundef -1, i32 noundef 0) #5
  %6 = load i32, ptr @ett_homeplug_av_cblock, align 4
  %7 = tail call ptr @ptvcursor_push_subtree(ptr noundef %0, ptr noundef %5, i32 noundef %6) #5
  %8 = load i32, ptr @hf_homeplug_av_cblock_sdram_size, align 4
  %9 = tail call ptr @ptvcursor_add(ptr noundef %0, i32 noundef %8, i32 noundef 4, i32 noundef -2147483648) #5
  %10 = load i32, ptr @hf_homeplug_av_cblock_sdram_conf, align 4
  %11 = tail call ptr @ptvcursor_add(ptr noundef %0, i32 noundef %10, i32 noundef 4, i32 noundef -2147483648) #5
  %12 = load i32, ptr @hf_homeplug_av_cblock_sdram_tim0, align 4
  %13 = tail call ptr @ptvcursor_add(ptr noundef %0, i32 noundef %12, i32 noundef 4, i32 noundef -2147483648) #5
  %14 = load i32, ptr @hf_homeplug_av_cblock_sdram_tim1, align 4
  %15 = tail call ptr @ptvcursor_add(ptr noundef %0, i32 noundef %14, i32 noundef 4, i32 noundef -2147483648) #5
  %16 = load i32, ptr @hf_homeplug_av_cblock_sdram_cntrl, align 4
  %17 = tail call ptr @ptvcursor_add(ptr noundef %0, i32 noundef %16, i32 noundef 4, i32 noundef -2147483648) #5
  %18 = load i32, ptr @hf_homeplug_av_cblock_sdram_refresh, align 4
  %19 = tail call ptr @ptvcursor_add(ptr noundef %0, i32 noundef %18, i32 noundef 4, i32 noundef -2147483648) #5
  %20 = load i32, ptr @hf_homeplug_av_cblock_mac_clock, align 4
  %21 = tail call ptr @ptvcursor_add(ptr noundef %0, i32 noundef %20, i32 noundef 4, i32 noundef -2147483648) #5
  %22 = load i32, ptr @hf_homeplug_av_reserved, align 4
  %23 = tail call ptr @ptvcursor_add(ptr noundef %0, i32 noundef %22, i32 noundef 4, i32 noundef 0) #5
  tail call void @ptvcursor_pop_subtree(ptr noundef %0) #5
  br label %24

24:                                               ; preds = %1, %3
  ret void
}